(lp0
(dp1
S'all'
p2
I852
sS'evidence'
p3
I398
sS'consider'
p4
I931
sS'dance'
p5
I988
sS'both'
p6
I1020
sS'dollar'
p7
I790
sS'month'
p8
I121
sS'four'
p9
I608
sS'known'
p10
I856
sS'island'
p11
I502
sS'sleep'
p12
I1130
sS'ice'
p13
I562
sS'hanging'
p14
I0
sS'go'
p15
I444
sS'bomb'
p16
I304
sS'captain'
p17
I1043
sS'hate'
p18
I544
sS'children'
p19
I1095
sS'seemed'
p20
I649
sS'whose'
p21
I742
sS'certainly'
p22
I682
sS'apartment'
p23
I253
sS'buddy'
p24
I158
sS'million'
p25
I321
sS'tv'
p26
I631
sS'concerned'
p27
I945
sS'father'
p28
I177
sS'young'
p29
I650
sS'send'
p30
I367
sS'to'
p31
I632
sS'charge'
p32
I835
sS'asking'
p33
I91
sS'those'
p34
I496
sS'under'
p35
I815
sS'lord'
p36
I883
sS'sorry'
p37
I159
sS'women'
p38
I1185
sS'worth'
p39
I77
sS'sent'
p40
I368
sS'town'
p41
I509
sS'woman'
p42
I579
sS'worse'
p43
I580
sS'sitting'
p44
I198
sS'very'
p45
I422
sS'caught'
p46
I112
sS'account'
p47
I810
sS'fat'
p48
I1168
sS'choice'
p49
I20
sS'me'
p50
I763
sS'putting'
p51
I528
sS'jack'
p52
I816
sS'decide'
p53
I122
sS'fall'
p54
I507
sS'telling'
p55
I142
sS'join'
p56
I547
sS'trouble'
p57
I989
sS'difference'
p58
I791
sS'minute'
p59
I21
sS'cool'
p60
I836
sS'entire'
p61
I210
sS'school'
p62
I223
sS'level'
p63
I238
sS'did'
p64
I1065
sS'turns'
p65
I95
sS'marry'
p66
I946
sS'list'
p67
I254
sS'gun'
p68
I96
sS'leave'
p69
I617
sS'walked'
p70
I366
sS'team'
p71
I316
sS'small'
p72
I39
sS'guy'
p73
I97
sS'shows'
p74
I409
sS'round'
p75
I178
sS'clothes'
p76
I456
sS"i'll"
p77
I1007
sS'forget'
p78
I1094
sS'talked'
p79
I1014
sS'force'
p80
I1044
sS"you'd"
p81
I274
sS'ten'
p82
I582
sS'tired'
p83
I884
sS'sign'
p84
I618
sS'jump'
p85
I143
sS'second'
p86
I885
sS'cost'
p87
I98
sS'summer'
p88
I926
sS'lawyer'
p89
I508
sS'pass'
p90
I41
sS'blue'
p91
I224
sS'what'
p92
I854
sS'hide'
p93
I225
sS'christ'
p94
I1133
sS'giving'
p95
I529
sS'sun'
p96
I255
sS'near'
p97
I383
sS"man's"
p98
I518
sS'seconds'
p99
I500
sS'waiting'
p100
I1184
sS'goes'
p101
I239
sS'new'
p102
I457
sS'learned'
p103
I124
sS'ever'
p104
I1046
sS'guns'
p105
I583
sS'told'
p106
I968
sS'body'
p107
I1115
sS'full'
p108
I42
sS'men'
p109
I160
sS'here'
p110
I886
sS'hours'
p111
I335
sS'met'
p112
I161
sS'let'
p113
I369
sS'address'
p114
I23
sS"hadn't"
p115
I99
sS'along'
p116
I911
sS"aren't"
p117
I1047
sS'fifteen'
p118
I58
sS'change'
p119
I401
sS'wait'
p120
I1068
sS'box'
p121
I179
sS'boy'
p122
I180
sS'great'
p123
I948
sS'kids'
p124
I1
sS'daughter'
p125
I666
sS'teeth'
p126
I762
sS'ahead'
p127
I424
sS'involved'
p128
I949
sS'study'
p129
I384
sS'changed'
p130
I1134
sS'jail'
p131
I482
sS'experience'
p132
I43
sS'leaving'
p133
I275
sS'paris'
p134
I1131
sS'crap'
p135
I729
sS"i'd"
p136
I293
sS"weren't"
p137
I1024
sS'smoke'
p138
I385
sS'pick'
p139
I336
sS'action'
p140
I337
sS"would've"
p141
I932
sS"i'm"
p142
I294
sS'special'
p143
I145
sS'makes'
p144
I59
sS'honor'
p145
I212
sS'fell'
p146
I476
sS'king'
p147
I262
sS'control'
p148
I1026
sS'named'
p149
I531
sS'killer'
p150
I483
sS'love'
p151
I723
sS'family'
p152
I707
sS'extra'
p153
I100
sS'suddenly'
p154
I984
sS'win'
p155
I728
sS'private'
p156
I532
sS'brought'
p157
I887
sS'ask'
p158
I125
sS'names'
p159
I533
sS'fbi'
p160
I101
sS'crime'
p161
I571
sS'standing'
p162
I370
sS'use'
p163
I591
sS'from'
p164
I527
sS'takes'
p165
I708
sS'working'
p166
I24
sS'army'
p167
I1048
sS'sake'
p168
I315
sS'hospital'
p169
I817
sS'visit'
p170
I181
sS'two'
p171
I794
sS'next'
p172
I60
sS'few'
p173
I592
sS'live'
p174
I402
sS'doubt'
p175
I371
sS'music'
p176
I2
sS'wondering'
p177
I726
sS'memory'
p178
I1155
sS'taken'
p179
I679
sS'tape'
p180
I71
sS'themselves'
p181
I534
sS'bill'
p182
I240
sS'type'
p183
I458
sS'tell'
p184
I459
sS'today'
p185
I241
sS'more'
p186
I44
sS'sort'
p187
I593
sS'son'
p188
I615
sS'door'
p189
I45
sS'knows'
p190
I855
sS'started'
p191
I730
sS'share'
p192
I1097
sS'company'
p193
I46
sS'line'
p194
I365
sS'sister'
p195
I382
sS'hurt'
p196
I295
sS'excuse'
p197
I709
sS'train'
p198
I809
sS"ain't"
p199
I1096
sS'agent'
p200
I1072
sS'broke'
p201
I425
sS'baby'
p202
I61
sS'hole'
p203
I890
sS'given'
p204
I840
sS'medical'
p205
I465
sS'glad'
p206
I857
sS'must'
p207
I1136
sS'shoot'
p208
I546
sS'states'
p209
I340
sS'none'
p210
I510
sS'locked'
p211
I3
sS'room'
p212
I162
sS'hour'
p213
I199
sS'middle'
p214
I497
sS'this'
p215
I951
sS'car'
p216
I685
sS'ride'
p217
I1025
sS'work'
p218
I970
sS'soul'
p219
I1071
sS'cat'
p220
I686
sS'movies'
p221
I163
sS'anywhere'
p222
I530
sS'nine'
p223
I426
sS'can'
p224
I687
sS'learn'
p225
I47
sS'making'
p226
I182
sS'my'
p227
I549
sS'history'
p228
I710
sS'beautiful'
p229
I338
sS'heart'
p230
I688
sS'crazy'
p231
I478
sS'months'
p232
I675
sS'figure'
p233
I242
sS'give'
p234
I460
sS'lock'
p235
I62
sS'\x96'
p236
I971
sS"didn't"
p237
I102
sS'fuck'
p238
I183
sS'accept'
p239
I339
sS'pieces'
p240
I952
sS'honey'
p241
I317
sS'heard'
p242
I689
sS'something'
p243
I594
sS'want'
p244
I4
sS'sense'
p245
I341
sS'every'
p246
I545
sS'times'
p247
I147
sS'dress'
p248
I934
sS'risk'
p249
I1132
sS'information'
p250
I342
sS'needs'
p251
I200
sS'united'
p252
I595
sS'end'
p253
I766
sS'sit'
p254
I868
sS'rather'
p255
I256
sS'country'
p256
I613
sS'six'
p257
I869
sS'sudden'
p258
I195
sS'department'
p259
I141
sS'machine'
p260
I296
sS'how'
p261
I892
sS'hot'
p262
I893
sS'answer'
p263
I1051
sS'instead'
p264
I870
sS'beach'
p265
I667
sS'either'
p266
I783
sS'staying'
p267
I1073
sS'okay'
p268
I257
sS'plans'
p269
I935
sS'sir'
p270
I867
sS'mess'
p271
I550
sS'stop'
p272
I466
sS'advice'
p273
I795
sS'after'
p274
I668
sS'spot'
p275
I318
sS'them'
p276
I389
sS'ball'
p277
I380
sS'wrong'
p278
I5
sS'birthday'
p279
I872
sS'blood'
p280
I511
sS'coming'
p281
I201
sS'date'
p282
I319
sS'president'
p283
I743
sS'law'
p284
I973
sS'guys'
p285
I480
sS'grow'
p286
I447
sS'man'
p287
I767
sS'a'
p288
I1010
sS'short'
p289
I258
sS'remember'
p290
I403
sS'third'
p291
I164
sS'whenever'
p292
I991
sS'maybe'
p293
I481
sS'appreciate'
p294
I78
sS'chief'
p295
I1117
sS'cannot'
p296
I699
sS'so'
p297
I619
sS'keeps'
p298
I297
sS'pleasure'
p299
I512
sS'first'
p300
I188
sS'pulled'
p301
I25
sS'playing'
p302
I796
sS'wind'
p303
I298
sS"that's"
p304
I797
sS'thirty'
p305
I567
sS'shoes'
p306
I184
sS'office'
p307
I975
sS"don't"
p308
I1170
sS'over'
p309
I1137
sS'move'
p310
I652
sS'mission'
p311
I584
sS'years'
p312
I26
sS'brain'
p313
I103
sS'paper'
p314
I245
sS'through'
p315
I202
sS'looks'
p316
I598
sS'\x97'
p317
I461
sS'hell'
p318
I714
sS'cold'
p319
I404
sS'still'
p320
I104
sS'wish'
p321
I542
sS'its'
p322
I937
sS'before'
p323
I165
sS'perfect'
p324
I63
sS'write'
p325
I1186
sS'police'
p326
I185
sS'thank'
p327
I1074
sS'fit'
p328
I6
sS'till'
p329
I479
sS'personal'
p330
I166
sS'interesting'
p331
I186
sS'fix'
p332
I7
sS'crew'
p333
I167
sS'late'
p334
I513
sS'owe'
p335
I605
sS'window'
p336
I405
sS'willing'
p337
I811
sS'weeks'
p338
I744
sS'might'
p339
I585
sS"haven't"
p340
I126
sS'happened'
p341
I837
sS'fool'
p342
I428
sS'then'
p343
I388
sS'coffee'
p344
I79
sS'good'
p345
I1098
sS'somebody'
p346
I259
sS'food'
p347
I429
sS'safe'
p348
I80
sS"we'll"
p349
I966
sS'sooner'
p350
I484
sS'scene'
p351
I69
sS'break'
p352
I976
sS'records'
p353
I320
sS"you've"
p354
I716
sS'kiss'
p355
I372
sS'half'
p356
I406
sS'not'
p357
I105
sS'now'
p358
I106
sS'comes'
p359
I414
sS'bullshit'
p360
I454
sS'bank'
p361
I670
sS'name'
p362
I838
sS'always'
p363
I343
sS'drop'
p364
I107
sS'supposed'
p365
I803
sS'had'
p366
I16
sS'someone'
p367
I573
sS'stopped'
p368
I717
sS'truth'
p369
I653
sS'each'
p370
I196
sS'found'
p371
I635
sS'went'
p372
I1053
sS'side'
p373
I928
sS"isn't"
p374
I118
sS'luck'
p375
I462
sS'everyone'
p376
I514
sS'england'
p377
I938
sS'fired'
p378
I1199
sS'doing'
p379
I953
sS'house'
p380
I1099
sS'fish'
p381
I798
sS'hard'
p382
I799
sS'yeah'
p383
I108
sS"they've"
p384
I947
sS'used'
p385
I438
sS'gave'
p386
I232
sS'expect'
p387
I859
sS"o'clock"
p388
I93
sS'year'
p389
I109
sS'our'
p390
I276
sS'happen'
p391
I690
sS'beyond'
p392
I1012
sS'ring'
p393
I110
sS'witness'
p394
I66
sS'out'
p395
I277
sS'large'
p396
I633
sS'by'
p397
I363
sS"'"
p398
I67
sS'space'
p399
I408
sS'god'
p400
I551
sS'tried'
p401
I1009
sS'since'
p402
I430
sS'tomorrow'
p403
I111
sS'looking'
p404
I609
sS'may'
p405
I1031
sS'laid'
p406
I227
sS"goin'"
p407
I923
sS"shouldn't"
p408
I292
sS"they'll"
p409
I203
sS'got'
p410
I552
sS'get'
p411
I189
sS'size'
p412
I411
sS'cause'
p413
I146
sS'twice'
p414
I556
sS'red'
p415
I665
sS"one's"
p416
I445
sS'ass'
p417
I123
sS'shut'
p418
I954
sS"you're"
p419
I149
sS"doin'"
p420
I955
sS'frank'
p421
I620
sS'harry'
p422
I634
sS'forgive'
p423
I1173
sS'free'
p424
I1140
sS'quite'
p425
I915
sS'quick'
p426
I1152
sS'completely'
p427
I732
sS'york'
p428
I1187
sS'besides'
p429
I916
sS'imagine'
p430
I1027
sS'put'
p431
I431
sS'teach'
p432
I1008
sS'wanted'
p433
I1142
sS'beginning'
p434
I204
sS'card'
p435
I691
sS'care'
p436
I692
sS'partner'
p437
I217
sS'days'
p438
I228
sS'afternoon'
p439
I174
sS'starts'
p440
I1054
sS'could'
p441
I68
sS'area'
p442
I1004
sS'terrible'
p443
I1013
sS'british'
p444
I693
sS'keep'
p445
I446
sS'thing'
p446
I771
sS'american'
p447
I128
sS'plane'
p448
I936
sS'place'
p449
I839
sS'wrote'
p450
I265
sS"it'll"
p451
I764
sS'onto'
p452
I818
sS'think'
p453
I772
sS'south'
p454
I669
sS'mad'
p455
I765
sS'major'
p456
I940
sS'already'
p457
I553
sS'feel'
p458
I427
sS'meet'
p459
I144
sS'number'
p460
I345
sS'yourself'
p461
I994
sS'feet'
p462
I860
sS'fucked'
p463
I1125
sS'done'
p464
I1172
sS'bitch'
p465
I148
sS'another'
p466
I81
sS'such'
p467
I912
sS'carry'
p468
I487
sS'says'
p469
I1153
sS'message'
p470
I694
sS'miss'
p471
I1015
sS'george'
p472
I1158
sS"'em"
p473
I410
sS'<UNK>'
p474
I2000
sS'idea'
p475
I515
sS"doesn't"
p476
I278
sS'little'
p477
I774
sS'long'
p478
I270
sS'heads'
p479
I346
sS"there's"
p480
I377
sS'service'
p481
I8
sS'needed'
p482
I9
sS'twenty'
p483
I516
sS'top'
p484
I819
sS'night'
p485
I89
sS'girls'
p486
I344
sS'system'
p487
I654
sS'least'
p488
I800
sS'anyone'
p489
I775
sS'their'
p490
I873
sS'attack'
p491
I448
sS'wonderful'
p492
I719
sS'too'
p493
I820
sS'tom'
p494
I821
sS'mama'
p495
I517
sS'white'
p496
I1159
sS'john'
p497
I82
sS'west'
p498
I30
sS'store'
p499
I261
sS'listen'
p500
I300
sS'eyes'
p501
I776
sS'murder'
p502
I822
sS'way'
p503
I676
sS'relationship'
p504
I347
sS'jesus'
p505
I374
sS'cup'
p506
I207
sS'exactly'
p507
I1033
sS'park'
p508
I801
sS'took'
p509
I554
sS'cops'
p510
I303
sS'part'
p511
I802
sS'taught'
p512
I463
sS'off'
p513
I73
sS'copy'
p514
I842
sS'herself'
p515
I449
sS'than'
p516
I996
sS"here's"
p517
I1079
sS'neck'
p518
I1034
sS'past'
p519
I40
sS'kind'
p520
I263
sS'hundred'
p521
I131
sS'showed'
p522
I610
sS'gotten'
p523
I1101
sS'gotta'
p524
I488
sS'bed'
p525
I450
sS'matter'
p526
I464
sS'street'
p527
I746
sS'marriage'
p528
I348
sS'friend'
p529
I412
sS'attention'
p530
I267
sS'were'
p531
I489
sS'college'
p532
I844
sS'feeling'
p533
I10
sS'bet'
p534
I231
sS'and'
p535
I900
sS'outta'
p536
I1102
sS'picked'
p537
I727
sS'sam'
p538
I917
sS'ran'
p539
I1143
sS'face'
p540
I656
sS'turned'
p541
I28
sS'mine'
p542
I749
sS'glass'
p543
I889
sS'spent'
p544
I523
sS'tonight'
p545
I70
sS'talking'
p546
I555
sS'say'
p547
I918
sS'himself'
p548
I441
sS'have'
p549
I214
sS"nothin'"
p550
I862
sS'seen'
p551
I750
sS'seem'
p552
I751
sS'turn'
p553
I243
sS'saw'
p554
I919
sS'tells'
p555
I168
sS'sell'
p556
I49
sS'lie'
p557
I1016
sS'afraid'
p558
I1188
sS'built'
p559
I1103
sS'trip'
p560
I848
sS'that'
p561
I995
sS'able'
p562
I1037
sS'oh'
p563
I576
sS'for'
p564
I312
sS'note'
p565
I920
sS'also'
p566
I50
sS'high'
p567
I950
sS'without'
p568
I250
sS'read'
p569
I418
sS'take'
p570
I323
sS'which'
p571
I874
sS'green'
p572
I386
sS'asshole'
p573
I19
sS'even'
p574
I1045
sS'play'
p575
I349
sS'nobody'
p576
I83
sS'pain'
p577
I490
sS'normal'
p578
I1080
sS'track'
p579
I1081
sS'huh'
p580
I896
sS'price'
p581
I695
sS'who'
p582
I279
sS'reach'
p583
I1174
sS'paid'
p584
I491
sS'most'
p585
I804
sS'mouth'
p586
I11
sS'plan'
p587
I350
sS'letter'
p588
I302
sS'nothing'
p589
I863
sS'america'
p590
I113
sS'why'
p591
I280
sS'forever'
p592
I696
sS'stupid'
p593
I1084
sS'especially'
p594
I1082
sS'foot'
p595
I115
sS'dream'
p596
I711
sS'clear'
p597
I1017
sS'later'
p598
I211
sS'cover'
p599
I351
sS'drive'
p600
I623
sS'order'
p601
I974
sS'looked'
p602
I599
sS"an'"
p603
I569
sS"you'll"
p604
I375
sS'talk'
p605
I768
sS'clean'
p606
I1018
sS'pictures'
p607
I134
sS'hear'
p608
I565
sS'lying'
p609
I264
sS'shop'
p610
I777
sS'saying'
p611
I12
sS'walking'
p612
I324
sS'shot'
p613
I778
sS'gold'
p614
I637
sS'show'
p615
I779
sS'lay'
p616
I972
sS'anyway'
p617
I451
sS'fifty'
p618
I697
sS'bring'
p619
I658
sS'radio'
p620
I825
sS'earth'
p621
I1144
sS'fear'
p622
I281
sS'fine'
p623
I1105
sS'find'
p624
I1106
sS'ground'
p625
I22
sS'one'
p626
I27
sS'busy'
p627
I897
sS'with'
p628
I36
sS'explain'
p629
I753
sS'dick'
p630
I781
sS'enough'
p631
I192
sS'should'
p632
I659
sS'only'
p633
I698
sS'going'
p634
I922
sS'black'
p635
I493
sS'pretty'
p636
I432
sS"wasn't"
p637
I503
sS'folks'
p638
I754
sS'watching'
p639
I876
sS'interested'
p640
I399
sS'hope'
p641
I378
sS'loved'
p642
I1121
sS'meant'
p643
I660
sS'do'
p644
I391
sS'his'
p645
I1176
sS'handle'
p646
I661
sS'means'
p647
I662
sS'beat'
p648
I1123
sS'watch'
p649
I826
sS'lucky'
p650
I956
sS'soon'
p651
I713
sS"they'd"
p652
I352
sS'ones'
p653
I1189
sS'words'
p654
I1190
sS'wedding'
p655
I213
sS'report'
p656
I827
sS'during'
p657
I433
sS'table'
p658
I1165
sS'him'
p659
I1029
sS'enemy'
p660
I638
sS'runs'
p661
I84
sS'bar'
p662
I1056
sS'die'
p663
I1066
sS'course'
p664
I914
sS'married'
p665
I282
sS'public'
p666
I792
sS'bag'
p667
I1057
sS'bad'
p668
I373
sS'miles'
p669
I190
sS'she'
p670
I452
sS'hardly'
p671
I572
sS'an'
p672
I332
sS"won't"
p673
I1028
sS'river'
p674
I941
sS'steal'
p675
I978
sS'bother'
p676
I655
sS'husband'
p677
I413
sS'set'
p678
I353
sS'art'
p679
I1032
sS'questions'
p680
I269
sS'fair'
p681
I305
sS'station'
p682
I130
sS'we'
p683
I671
sS'light'
p684
I871
sS'sex'
p685
I354
sS'see'
p686
I355
sS'decided'
p687
I755
sS'dumb'
p688
I1035
sS'are'
p689
I1178
sS'sea'
p690
I356
sS'close'
p691
I133
sS'arm'
p692
I1179
sS'best'
p693
I306
sS'wonder'
p694
I191
sS'said'
p695
I1058
sS'computer'
p696
I1038
sS'has'
p697
I17
sS'ways'
p698
I1160
sS'movie'
p699
I942
sS'away'
p700
I85
sS'missing'
p701
I135
sS'please'
p702
I1107
sS"father's"
p703
I1085
sS'favor'
p704
I570
sS'behind'
p705
I492
sS'future'
p706
I322
sS'lose'
p707
I153
sS'between'
p708
I700
sS'probably'
p709
I1019
sS'hold'
p710
I891
sS'reading'
p711
I494
sS'across'
p712
I1083
sS'bought'
p713
I283
sS'knowing'
p714
I639
sS'gives'
p715
I841
sS'notice'
p716
I998
sS'follow'
p717
I967
sS'nature'
p718
I14
sS'sold'
p719
I266
sS'court'
p720
I858
sS'killing'
p721
I495
sS'am'
p722
I331
sS'job'
p723
I284
sS'cut'
p724
I206
sS'joe'
p725
I285
sS'key'
p726
I150
sS'news'
p727
I229
sS'boss'
p728
I557
sS'come'
p729
I1161
sS'driving'
p730
I1139
sS'pull'
p731
I37
sS'water'
p732
I1154
sS'protect'
p733
I558
sS'figured'
p734
I379
sS'last'
p735
I52
sS'career'
p736
I1041
sS'many'
p737
I625
sS"wouldn't"
p738
I136
sS"he's"
p739
I1156
sS'quiet'
p740
I246
sS'against'
p741
I756
sS'somewhere'
p742
I387
sS'admit'
p743
I733
sS"she's"
p744
I443
sS'rose'
p745
I849
sS'loose'
p746
I706
sS'whole'
p747
I357
sS'asked'
p748
I899
sS"can't"
p749
I29
sS'wear'
p750
I828
sS'liked'
p751
I434
sS'tough'
p752
I980
sS'point'
p753
I205
sS'simple'
p754
I805
sS'legs'
p755
I299
sS'others'
p756
I1116
sS'whatever'
p757
I1021
sS'walk'
p758
I878
sS'alone'
p759
I910
sS'simply'
p760
I806
sS'likes'
p761
I435
sS"couldn't"
p762
I35
sS'church'
p763
I641
sS'sees'
p764
I747
sS'writing'
p765
I1138
sS'boat'
p766
I925
sS'speak'
p767
I981
sS'ourselves'
p768
I1113
sS'better'
p769
I1052
sS'finally'
p770
I1064
sS'strong'
p771
I423
sS"it's"
p772
I215
sS'due'
p773
I586
sS'been'
p774
I559
sS'secret'
p775
I519
sS'much'
p776
I15
sS'damn'
p777
I720
sS'interest'
p778
I964
sS'ah'
p779
I330
sS'waste'
p780
I957
sS'meeting'
p781
I1108
sS'mary'
p782
I1086
sS"it'd"
p783
I216
sS'wants'
p784
I31
sS'life'
p785
I307
sS'lived'
p786
I137
sS'general'
p787
I785
sS'brother'
p788
I1151
sS'cop'
p789
I392
sS'drugs'
p790
I222
sS'mind'
p791
I748
sS'thousand'
p792
I325
sS'prison'
p793
I904
sS"he'd"
p794
I1157
sS'else'
p795
I436
sS'moment'
p796
I522
sS'accident'
p797
I898
sS'corner'
p798
I780
sS'child'
p799
I308
sS'catch'
p800
I1146
sS'worked'
p801
I614
sS'careful'
p802
I846
sS'present'
p803
I879
sS'honest'
p804
I993
sS'sound'
p805
I194
sS'myself'
p806
I847
sS'hall'
p807
I407
sS'look'
p808
I721
sS'these'
p809
I701
sS'straight'
p810
I642
sS'worried'
p811
I624
sS'cash'
p812
I248
sS'air'
p813
I672
sS'will'
p814
I1191
sS'while'
p815
I1022
sS'suppose'
p816
I1060
sS'smart'
p817
I288
sS'shall'
p818
I895
sS'fault'
p819
I230
sS'fun'
p820
I521
sS'situation'
p821
I32
sS'voice'
p822
I393
sS'wake'
p823
I193
sS'taking'
p824
I812
sS'mistake'
p825
I982
sS'dad'
p826
I1118
sS'seven'
p827
I169
sS'group'
p828
I1040
sS'wild'
p829
I1192
sS'played'
p830
I901
sS'almost'
p831
I813
sS'is'
p832
I467
sS'it'
p833
I468
sS'wife'
p834
I252
sS'need'
p835
I1036
sS'evening'
p836
I127
sS'in'
p837
I469
sS'ready'
p838
I722
sS'bucks'
p839
I735
sS'rid'
p840
I1180
sS'worry'
p841
I999
sS'if'
p842
I470
sS'funny'
p843
I361
sS'different'
p844
I1087
sS'open'
p845
I621
sS'doctor'
p846
I1088
sS'perhaps'
p847
I286
sS'pay'
p848
I1089
sS'make'
p849
I757
sS'0'
p850
I2001
sS'cross'
p851
I48
sS'same'
p852
I498
sS'any'
p853
I568
sS'ya'
p854
I715
sS'when'
p855
I235
sS'strange'
p856
I736
sS'shit'
p857
I474
sS'wall'
p858
I877
sS'grand'
p859
I139
sS'party'
p860
I151
sS'gets'
p861
I880
sS'day'
p862
I1120
sS'difficult'
p863
I287
sS'week'
p864
I249
sS'outside'
p865
I845
sS'finish'
p866
I415
sS'drink'
p867
I663
sS'upon'
p868
I958
sS'yesterday'
p869
I1110
sS'evil'
p870
I1141
sS'hand'
p871
I87
sS'usually'
p872
I683
sS'running'
p873
I1090
sS'moving'
p874
I1181
sS'never'
p875
I537
sS'awful'
p876
I853
sS'suit'
p877
I644
sS'opportunity'
p878
I758
sS"he'll"
p879
I1061
sS'understand'
p880
I520
sS'kid'
p881
I759
sS'dark'
p882
I628
sS'kept'
p883
I394
sS'mention'
p884
I1119
sS'i'
p885
I453
sS'try'
p886
I651
sS'no'
p887
I566
sS'well'
p888
I737
sS'anybody'
p889
I587
sS'fighting'
p890
I602
sS'thought'
p891
I1126
sS'person'
p892
I301
sS'contact'
p893
I673
sS'command'
p894
I381
sS'greatest'
p895
I560
sS'english'
p896
I1193
sS'position'
p897
I1127
sS'the'
p898
I395
sS'yours'
p899
I977
sS'left'
p900
I1062
sS'things'
p901
I902
sS"she'll"
p902
I983
sS'they'
p903
I390
sS'just'
p904
I1063
sS'less'
p905
I959
sS'being'
p906
I33
sS'money'
p907
I782
sS'hands'
p908
I731
sS'starting'
p909
I506
sS'rest'
p910
I626
sS'front'
p911
I1030
sS'kill'
p912
I1162
sS'thanks'
p913
I88
sS'human'
p914
I760
sS'world'
p915
I34
sS'touch'
p916
I416
sS'where'
p917
I924
sS'yes'
p918
I170
sS'yet'
p919
I979
sS'blow'
p920
I1163
sS'death'
p921
I640
sS'sometimes'
p922
I51
sS'field'
p923
I505
sS'thinking'
p924
I1000
sS"we've"
p925
I1164
sS'drunk'
p926
I358
sS'seems'
p927
I850
sS'except'
p928
I574
sS'knew'
p929
I921
sS'killed'
p930
I485
sS'arrest'
p931
I960
sS'book'
p932
I1201
sS'parents'
p933
I53
sS'board'
p934
I674
sS'easy'
p935
I903
sS'sweet'
p936
I268
sS'reason'
p937
I718
sS'desk'
p938
I962
sS'save'
p939
I171
sS'totally'
p940
I499
sS'city'
p941
I622
sS'kick'
p942
I933
sS'build'
p943
I1104
sS'real'
p944
I417
sS'around'
p945
I627
sS'fire'
p946
I359
sS'government'
p947
I664
sS'rules'
p948
I702
sS'big'
p949
I1111
sS'couple'
p950
I54
sS"who's"
p951
I603
sS'possible'
p952
I309
sS'gonna'
p953
I116
sS'early'
p954
I1001
sS'possibly'
p955
I310
sS'game'
p956
I724
sS'five'
p957
I961
sS'know'
p958
I1195
sS'mom'
p959
I1091
sS'destroy'
p960
I376
sS'judge'
p961
I831
sS'using'
p962
I643
sS'bit'
p963
I1112
sS'lady'
p964
I419
sS'dreams'
p965
I761
sS'apart'
p966
I561
sS'knock'
p967
I208
sS'stuff'
p968
I72
sS'as'
p969
I333
sS'like'
p970
I219
sS'lost'
p971
I152
sS'hotel'
p972
I861
sS'french'
p973
I1067
sS'girl'
p974
I1075
sS'officer'
p975
I832
sS'james'
p976
I992
sS'bunch'
p977
I535
sS'become'
p978
I74
sS'mr'
p979
I548
sS'rich'
p980
I13
sS'help'
p981
I712
sS'twelve'
p982
I117
sS'right'
p983
I905
sS'old'
p984
I906
sS'fill'
p985
I787
sS'deal'
p986
I172
sS'people'
p987
I311
sS'fucking'
p988
I588
sS'goddamn'
p989
I55
sS'scared'
p990
I881
sS'some'
p991
I1023
sS'begin'
p992
I997
sS'dead'
p993
I986
sS'calling'
p994
I1124
sS'hair'
p995
I220
sS'born'
p996
I90
sS'offer'
p997
I907
sS'sure'
p998
I244
sS'respect'
p999
I601
sS'dear'
p1000
I173
sS'unless'
p1001
I1122
sS'guess'
p1002
I636
sS'mother'
p1003
I830
sS'happens'
p1004
I221
sS'trust'
p1005
I829
sS'stuck'
p1006
I234
sS'lead'
p1007
I1196
sS'bottom'
p1008
I18
sS'though'
p1009
I823
sS'inside'
p1010
I616
sS'mister'
p1011
I843
sS'everything'
p1012
I833
sS'does'
p1013
I963
sS'three'
p1014
I1059
sS'christmas'
p1015
I563
sS'nose'
p1016
I526
sS'somehow'
p1017
I985
sS'everybody'
p1018
I1069
sS"y'know"
p1019
I1197
sS'run'
p1020
I439
sS'business'
p1021
I1002
sS'quit'
p1022
I734
sS"fuckin'"
p1023
I589
sS'word'
p1024
I969
sS"somethin'"
p1025
I597
sS'rock'
p1026
I770
sS'bathroom'
p1027
I1145
sS'ought'
p1028
I218
sS'broken'
p1029
I501
sS'step'
p1030
I725
sS'eye'
p1031
I793
sS'security'
p1032
I396
sS'on'
p1033
I575
sS'about'
p1034
I814
sS'works'
p1035
I538
sS'would'
p1036
I226
sS'anything'
p1037
I364
sS'getting'
p1038
I1198
sS'of'
p1039
I577
sS'dollars'
p1040
I313
sS'prove'
p1041
I684
sS'truck'
p1042
I913
sS'dinner'
p1043
I233
sS'swear'
p1044
I596
sS'plus'
p1045
I834
sS'stand'
p1046
I851
sS'act'
p1047
I327
sS'eight'
p1048
I536
sS'mean'
p1049
I745
sS'wanna'
p1050
I864
sS'or'
p1051
I578
sS'road'
p1052
I1092
sS'seeing'
p1053
I440
sS'own'
p1054
I604
sS"'cause"
p1055
I132
sS'press'
p1056
I289
sS'into'
p1057
I56
sS'within'
p1058
I769
sS'washington'
p1059
I738
sS'arms'
p1060
I1049
sS'down'
p1061
I175
sS'because'
p1062
I1182
sS'promise'
p1063
I290
sS'daddy'
p1064
I472
sS'kinda'
p1065
I291
sS'actually'
p1066
I1011
sS'hang'
p1067
I86
sS'your'
p1068
I1003
sS'story'
p1069
I260
sS'her'
p1070
I629
sS'anymore'
p1071
I437
sS'weekend'
p1072
I176
sS'there'
p1073
I251
sS'question'
p1074
I486
sS'hey'
p1075
I630
sS'fast'
p1076
I1078
sS'fight'
p1077
I397
sS'start'
p1078
I119
sS'low'
p1079
I704
sS'lot'
p1080
I705
sS'worst'
p1081
I581
sS'dirty'
p1082
I38
sS'call'
p1083
I1050
sS'wearing'
p1084
I1055
sS'was'
p1085
I677
sS'war'
p1086
I678
sS'happy'
p1087
I314
sS'ago'
p1088
I943
sS'head'
p1089
I564
sS'buy'
p1090
I539
sS'north'
p1091
I155
sS'complete'
p1092
I929
sS'form'
p1093
I471
sS"i've"
p1094
I1200
sS'bus'
p1095
I540
sS'believe'
p1096
I1175
sS'but'
p1097
I541
sS'back'
p1098
I525
sS'boys'
p1099
I807
sS'state'
p1100
I1039
sS'uncle'
p1101
I1147
sS'alive'
p1102
I1128
sS'be'
p1103
I362
sS'trying'
p1104
I420
sS'true'
p1105
I680
sS'eat'
p1106
I739
sS'he'
p1107
I455
sS"they're"
p1108
I328
sS'throw'
p1109
I703
sS'made'
p1110
I882
sS'plenty'
p1111
I824
sS'places'
p1112
I75
sS'mrs'
p1113
I114
sS'whether'
p1114
I600
sS'dangerous'
p1115
I1129
sS'sounds'
p1116
I773
sS'morning'
p1117
I1076
sS"hasn't"
p1118
I271
sS'us'
p1119
I646
sS'until'
p1120
I888
sS'planet'
p1121
I209
sS'record'
p1122
I606
sS'books'
p1123
I65
sS'stories'
p1124
I740
sS'uh'
p1125
I647
sS'case'
p1126
I247
sS'acting'
p1127
I1100
sS'problem'
p1128
I76
sS'piece'
p1129
I1042
sS'minutes'
p1130
I543
sS'called'
p1131
I1183
sS"we'd"
p1132
I894
sS'gone'
p1133
I329
sS'camp'
p1134
I611
sS'up'
p1135
I645
sS'certain'
p1136
I930
sS'moved'
p1137
I421
sS'deep'
p1138
I784
sS'fellow'
p1139
I1093
sS'fly'
p1140
I1070
sS'single'
p1141
I808
sS"she'd"
p1142
I442
sS'home'
p1143
I154
sS'girlfriend'
p1144
I504
sS'ship'
p1145
I473
sS'horse'
p1146
I129
sS'check'
p1147
I1148
sS'film'
p1148
I786
sS'spend'
p1149
I524
sS'hit'
p1150
I1177
sS'again'
p1151
I197
sS'dying'
p1152
I987
sS'floor'
p1153
I908
sS'peace'
p1154
I272
sS'percent'
p1155
I1194
sS'thinks'
p1156
I326
sS'power'
p1157
I927
sS'club'
p1158
I990
sS'other'
p1159
I607
sS"we're"
p1160
I590
sS'sick'
p1161
I140
sS'papers'
p1162
I236
sS'test'
p1163
I92
sS'you'
p1164
I1005
sS'really'
p1165
I939
sS"what's"
p1166
I360
sS'realize'
p1167
I64
sS'nice'
p1168
I273
sS'poor'
p1169
I120
sS'picture'
p1170
I237
sS'star'
p1171
I156
sS'brothers'
p1172
I681
sS'living'
p1173
I1077
sS'class'
p1174
I875
sS'felt'
p1175
I475
sS'problems'
p1176
I865
sS'return'
p1177
I1171
sS'stay'
p1178
I157
sS"let's"
p1179
I94
sS'alright'
p1180
I789
sS'chance'
p1181
I965
sS'important'
p1182
I788
sS'lunch'
p1183
I187
sS'serious'
p1184
I1150
sS'friends'
p1185
I741
sS'desert'
p1186
I1114
sS'died'
p1187
I477
sS'building'
p1188
I1006
sS'land'
p1189
I57
sS'longer'
p1190
I1149
sS'calls'
p1191
I1166
sS'phone'
p1192
I1135
sS'came'
p1193
I612
sS'age'
p1194
I944
sS'dog'
p1195
I752
sS'together'
p1196
I400
sS'itself'
p1197
I1109
sS'fact'
p1198
I657
sS'time'
p1199
I909
sS'far'
p1200
I1167
sS'lives'
p1201
I138
sS'once'
p1202
I866
sS'at'
p1203
I334
sS'having'
p1204
I648
sS'stick'
p1205
I1169
sa(dp1206
I0
g14
sI1
g124
sI2
g176
sI3
g211
sI4
g244
sI5
g278
sI6
g328
sI7
g332
sI8
g481
sI9
g482
sI10
g533
sI11
g586
sI12
g611
sI13
g980
sI14
g718
sI15
g776
sI16
g366
sI17
g697
sI18
g1008
sI19
g573
sI20
g49
sI21
g59
sI22
g625
sI23
g114
sI24
g166
sI25
g301
sI26
g312
sI27
g626
sI28
g541
sI29
g749
sI30
g498
sI31
g784
sI32
g821
sI33
g906
sI34
g915
sI35
g762
sI36
g628
sI37
g731
sI38
g1082
sI39
g72
sI40
g519
sI41
g90
sI42
g108
sI43
g132
sI44
g186
sI45
g189
sI46
g193
sI47
g225
sI48
g851
sI49
g556
sI50
g566
sI51
g922
sI52
g735
sI53
g933
sI54
g950
sI55
g989
sI56
g1057
sI57
g1189
sI58
g118
sI59
g144
sI60
g172
sI61
g202
sI62
g235
sI63
g324
sI64
g1167
sI65
g1123
sI66
g394
sI67
g398
sI68
g441
sI69
g351
sI70
g545
sI71
g180
sI72
g968
sI73
g513
sI74
g978
sI75
g1112
sI76
g1128
sI77
g39
sI78
g294
sI79
g344
sI80
g348
sI81
g466
sI82
g497
sI83
g576
sI84
g661
sI85
g700
sI86
g1067
sI87
g871
sI88
g913
sI89
g485
sI90
g996
sI91
g33
sI92
g1163
sI93
g388
sI94
g1179
sI95
g65
sI96
g68
sI97
g73
sI98
g87
sI99
g115
sI100
g153
sI101
g160
sI102
g237
sI103
g313
sI104
g320
sI105
g357
sI106
g358
sI107
g364
sI108
g383
sI109
g389
sI110
g393
sI111
g403
sI112
g46
sI113
g590
sI114
g1113
sI115
g595
sI116
g953
sI117
g982
sI118
g374
sI119
g1078
sI120
g1169
sI121
g8
sI122
g53
sI123
g417
sI124
g103
sI125
g158
sI126
g340
sI127
g836
sI128
g447
sI129
g1146
sI130
g682
sI131
g521
sI132
g1055
sI133
g691
sI134
g607
sI135
g701
sI136
g738
sI137
g786
sI138
g1201
sI139
g859
sI140
g1161
sI141
g259
sI142
g55
sI143
g85
sI144
g459
sI145
g143
sI146
g413
sI147
g247
sI148
g465
sI149
g419
sI150
g726
sI151
g860
sI152
g971
sI153
g707
sI154
g1143
sI155
g1091
sI156
g1171
sI157
g1178
sI158
g24
sI159
g37
sI160
g109
sI161
g112
sI162
g212
sI163
g221
sI164
g291
sI165
g323
sI166
g330
sI167
g333
sI168
g555
sI169
g827
sI170
g918
sI171
g939
sI172
g986
sI173
g1000
sI174
g439
sI175
g1061
sI176
g1072
sI177
g28
sI178
g75
sI179
g121
sI180
g122
sI181
g170
sI182
g226
sI183
g238
sI184
g306
sI185
g326
sI186
g331
sI187
g1183
sI188
g300
sI189
g411
sI190
g669
sI191
g694
sI192
g631
sI193
g823
sI194
g805
sI195
g258
sI196
g370
sI197
g1151
sI198
g44
sI199
g213
sI200
g251
sI201
g281
sI202
g315
sI203
g409
sI204
g434
sI205
g753
sI206
g724
sI207
g506
sI208
g967
sI209
g1121
sI210
g61
sI211
g598
sI212
g145
sI213
g655
sI214
g549
sI215
g772
sI216
g783
sI217
g437
sI218
g1028
sI219
g970
sI220
g995
sI221
g1004
sI222
g790
sI223
g62
sI224
g91
sI225
g93
sI226
g1036
sI227
g406
sI228
g438
sI229
g727
sI230
g819
sI231
g534
sI232
g386
sI233
g1043
sI234
g1006
sI235
g855
sI236
g1162
sI237
g1170
sI238
g63
sI239
g101
sI240
g182
sI241
g185
sI242
g233
sI243
g553
sI244
g998
sI245
g314
sI246
g740
sI247
g1126
sI248
g812
sI249
g864
sI250
g568
sI251
g1073
sI252
g834
sI253
g23
sI254
g67
sI255
g96
sI256
g255
sI257
g268
sI258
g289
sI259
g346
sI260
g1069
sI261
g499
sI262
g147
sI263
g520
sI264
g609
sI265
g450
sI266
g719
sI267
g530
sI268
g936
sI269
g680
sI270
g478
sI271
g1118
sI272
g1154
sI273
g1168
sI274
g81
sI275
g133
sI276
g390
sI277
g395
sI278
g476
sI279
g582
sI280
g591
sI281
g622
sI282
g665
sI283
g713
sI284
g723
sI285
g725
sI286
g847
sI287
g863
sI288
g817
sI289
g1056
sI290
g1063
sI291
g1065
sI292
g408
sI293
g136
sI294
g142
sI295
g196
sI296
g260
sI297
g298
sI298
g303
sI299
g755
sI300
g500
sI301
g892
sI302
g588
sI303
g510
sI304
g16
sI305
g681
sI306
g693
sI307
g785
sI308
g799
sI309
g952
sI310
g955
sI311
g987
sI312
g564
sI313
g1040
sI314
g1087
sI315
g168
sI316
g71
sI317
g241
sI318
g275
sI319
g282
sI320
g353
sI321
g25
sI322
g706
sI323
g570
sI324
g612
sI325
g792
sI326
g1156
sI327
g1047
sI328
g1108
sI329
g1133
sI330
g779
sI331
g722
sI332
g672
sI333
g969
sI334
g1203
sI335
g111
sI336
g139
sI337
g140
sI338
g229
sI339
g239
sI340
g209
sI341
g245
sI342
g250
sI343
g363
sI344
g486
sI345
g460
sI346
g479
sI347
g504
sI348
g528
sI349
g575
sI350
g587
sI351
g599
sI352
g652
sI353
g678
sI354
g685
sI355
g686
sI356
g690
sI357
g747
sI358
g926
sI359
g946
sI360
g1166
sI361
g843
sI362
g1103
sI363
g397
sI364
g1037
sI365
g194
sI366
g70
sI367
g30
sI368
g40
sI369
g113
sI370
g162
sI371
g175
sI372
g355
sI373
g668
sI374
g505
sI375
g604
sI376
g960
sI377
g480
sI378
g641
sI379
g734
sI380
g277
sI381
g894
sI382
g195
sI383
g97
sI384
g129
sI385
g138
sI386
g572
sI387
g742
sI388
g343
sI389
g276
sI390
g903
sI391
g644
sI392
g789
sI393
g822
sI394
g883
sI395
g898
sI396
g1032
sI397
g1077
sI398
g3
sI399
g640
sI400
g1196
sI401
g119
sI402
g174
sI403
g290
sI404
g319
sI405
g336
sI406
g356
sI407
g807
sI408
g399
sI409
g74
sI410
g473
sI411
g412
sI412
g529
sI413
g677
sI414
g359
sI415
g866
sI416
g916
sI417
g944
sI418
g569
sI419
g964
sI420
g1104
sI421
g1137
sI422
g45
sI423
g771
sI424
g127
sI425
g201
sI426
g223
sI427
g458
sI428
g342
sI429
g347
sI430
g402
sI431
g431
sI432
g636
sI433
g657
sI434
g751
sI435
g761
sI436
g795
sI437
g1071
sI438
g385
sI439
g1020
sI440
g1053
sI441
g548
sI442
g1142
sI443
g744
sI444
g15
sI445
g416
sI446
g445
sI447
g286
sI448
g491
sI449
g515
sI450
g525
sI451
g617
sI452
g670
sI453
g885
sI454
g360
sI455
g1107
sI456
g76
sI457
g102
sI458
g183
sI459
g184
sI460
g234
sI461
g317
sI462
g375
sI463
g512
sI464
g526
sI465
g205
sI466
g272
sI467
g832
sI468
g833
sI469
g837
sI470
g842
sI471
g1093
sI472
g1064
sI473
g1145
sI474
g857
sI475
g1175
sI476
g146
sI477
g1187
sI478
g231
sI479
g329
sI480
g285
sI481
g293
sI482
g131
sI483
g150
sI484
g350
sI485
g930
sI486
g1074
sI487
g468
sI488
g524
sI489
g531
sI490
g577
sI491
g584
sI492
g705
sI493
g635
sI494
g711
sI495
g721
sI496
g34
sI497
g214
sI498
g852
sI499
g940
sI500
g99
sI501
g1029
sI502
g11
sI503
g637
sI504
g1144
sI505
g923
sI506
g909
sI507
g54
sI508
g89
sI509
g41
sI510
g210
sI511
g280
sI512
g299
sI513
g334
sI514
g376
sI515
g475
sI516
g483
sI517
g495
sI518
g98
sI519
g775
sI520
g880
sI521
g820
sI522
g796
sI523
g544
sI524
g1149
sI525
g1098
sI526
g1016
sI527
g164
sI528
g51
sI529
g95
sI530
g222
sI531
g149
sI532
g156
sI533
g159
sI534
g181
sI535
g977
sI536
g1048
sI537
g875
sI538
g1035
sI539
g1090
sI540
g1095
sI541
g1097
sI542
g321
sI543
g1130
sI544
g18
sI545
g246
sI546
g208
sI547
g56
sI548
g979
sI549
g227
sI550
g271
sI551
g400
sI552
g410
sI553
g457
sI554
g509
sI555
g546
sI556
g414
sI557
g728
sI558
g733
sI559
g774
sI560
g895
sI561
g966
sI562
g13
sI563
g1015
sI564
g1089
sI565
g608
sI566
g887
sI567
g305
sI568
g853
sI569
g603
sI570
g704
sI571
g161
sI572
g671
sI573
g367
sI574
g928
sI575
g1033
sI576
g563
sI577
g1039
sI578
g1051
sI579
g42
sI580
g43
sI581
g1081
sI582
g82
sI583
g105
sI584
g311
sI585
g339
sI586
g773
sI587
g889
sI588
g988
sI589
g1023
sI590
g1160
sI591
g163
sI592
g173
sI593
g187
sI594
g243
sI595
g252
sI596
g1044
sI597
g1025
sI598
g316
sI599
g602
sI600
g1114
sI601
g999
sI602
g890
sI603
g951
sI604
g1054
sI605
g335
sI606
g1122
sI607
g1159
sI608
g9
sI609
g404
sI610
g522
sI611
g1134
sI612
g1193
sI613
g256
sI614
g801
sI615
g188
sI616
g1010
sI617
g69
sI618
g84
sI619
g297
sI620
g421
sI621
g845
sI622
g941
sI623
g600
sI624
g811
sI625
g737
sI626
g910
sI627
g945
sI628
g882
sI629
g1070
sI630
g1075
sI631
g26
sI632
g31
sI633
g396
sI634
g422
sI635
g371
sI636
g1002
sI637
g614
sI638
g660
sI639
g714
sI640
g921
sI641
g763
sI642
g810
sI643
g962
sI644
g877
sI645
g1135
sI646
g1119
sI647
g1125
sI648
g1204
sI649
g20
sI650
g29
sI651
g886
sI652
g310
sI653
g369
sI654
g487
sI655
g676
sI656
g540
sI657
g1198
sI658
g619
sI659
g632
sI660
g643
sI661
g646
sI662
g647
sI663
g867
sI664
g947
sI665
g415
sI666
g125
sI667
g265
sI668
g274
sI669
g454
sI670
g361
sI671
g683
sI672
g813
sI673
g893
sI674
g934
sI675
g232
sI676
g503
sI677
g1085
sI678
g1086
sI679
g179
sI680
g1105
sI681
g1172
sI682
g22
sI683
g872
sI684
g1041
sI685
g216
sI686
g220
sI687
g224
sI688
g230
sI689
g242
sI690
g391
sI691
g435
sI692
g436
sI693
g444
sI694
g470
sI695
g581
sI696
g592
sI697
g618
sI698
g633
sI699
g296
sI700
g708
sI701
g809
sI702
g948
sI703
g1109
sI704
g1079
sI705
g1080
sI706
g746
sI707
g152
sI708
g165
sI709
g197
sI710
g228
sI711
g596
sI712
g981
sI713
g651
sI714
g318
sI715
g854
sI716
g354
sI717
g368
sI718
g937
sI719
g492
sI720
g777
sI721
g808
sI722
g838
sI723
g151
sI724
g956
sI725
g1030
sI726
g177
sI727
g537
sI728
g155
sI729
g135
sI730
g191
sI731
g908
sI732
g427
sI733
g743
sI734
g1022
sI735
g839
sI736
g856
sI737
g888
sI738
g1059
sI739
g1106
sI740
g1124
sI741
g1185
sI742
g21
sI743
g283
sI744
g338
sI745
g1049
sI746
g527
sI747
g764
sI748
g791
sI749
g542
sI750
g551
sI751
g552
sI752
g1195
sI753
g629
sI754
g638
sI755
g687
sI756
g741
sI757
g849
sI758
g878
sI759
g881
sI760
g914
sI761
g965
sI762
g126
sI763
g50
sI764
g451
sI765
g455
sI766
g253
sI767
g287
sI768
g605
sI769
g1058
sI770
g1026
sI771
g446
sI772
g453
sI773
g1116
sI774
g477
sI775
g489
sI776
g501
sI777
g610
sI778
g613
sI779
g615
sI780
g798
sI781
g630
sI782
g907
sI783
g266
sI784
g1138
sI785
g787
sI786
g1148
sI787
g985
sI788
g1182
sI789
g1180
sI790
g7
sI791
g58
sI792
g666
sI793
g1031
sI794
g171
sI795
g273
sI796
g302
sI797
g304
sI798
g381
sI799
g382
sI800
g488
sI801
g508
sI802
g511
sI803
g365
sI804
g585
sI805
g754
sI806
g760
sI807
g1099
sI808
g1141
sI809
g198
sI810
g47
sI811
g337
sI812
g824
sI813
g831
sI814
g1034
sI815
g35
sI816
g52
sI817
g169
sI818
g452
sI819
g484
sI820
g493
sI821
g494
sI822
g502
sI823
g1009
sI824
g1111
sI825
g620
sI826
g649
sI827
g656
sI828
g750
sI829
g1005
sI830
g1003
sI831
g961
sI832
g975
sI833
g1012
sI834
g1045
sI835
g32
sI836
g60
sI837
g341
sI838
g362
sI839
g449
sI840
g204
sI841
g715
sI842
g514
sI843
g1011
sI844
g532
sI845
g865
sI846
g802
sI847
g806
sI848
g560
sI849
g745
sI850
g927
sI851
g1046
sI852
g2
sI853
g876
sI854
g92
sI855
g190
sI856
g10
sI857
g206
sI858
g720
sI859
g387
sI860
g462
sI861
g972
sI862
g550
sI863
g589
sI864
g1050
sI865
g1176
sI866
g1202
sI867
g270
sI868
g254
sI869
g257
sI870
g264
sI871
g684
sI872
g279
sI873
g490
sI874
g571
sI875
g1174
sI876
g639
sI877
g858
sI878
g758
sI879
g803
sI880
g861
sI881
g990
sI882
g1110
sI883
g36
sI884
g83
sI885
g86
sI886
g110
sI887
g157
sI888
g1120
sI889
g543
sI890
g203
sI891
g710
sI892
g261
sI893
g262
sI894
g1132
sI895
g818
sI896
g580
sI897
g627
sI898
g797
sI899
g748
sI900
g535
sI901
g830
sI902
g901
sI903
g935
sI904
g793
sI905
g983
sI906
g984
sI907
g997
sI908
g1153
sI909
g1199
sI910
g759
sI911
g116
sI912
g467
sI913
g1042
sI914
g664
sI915
g425
sI916
g429
sI917
g538
sI918
g547
sI919
g554
sI920
g565
sI921
g929
sI922
g634
sI923
g407
sI924
g917
sI925
g766
sI926
g88
sI927
g1157
sI928
g373
sI929
g1092
sI930
g1136
sI931
g4
sI932
g141
sI933
g942
sI934
g248
sI935
g269
sI936
g448
sI937
g322
sI938
g377
sI939
g1165
sI940
g456
sI941
g674
sI942
g699
sI943
g1088
sI944
g1194
sI945
g27
sI946
g66
sI947
g384
sI948
g123
sI949
g128
sI950
g567
sI951
g215
sI952
g240
sI953
g379
sI954
g418
sI955
g420
sI956
g650
sI957
g780
sI958
g868
sI959
g905
sI960
g931
sI961
g957
sI962
g938
sI963
g1013
sI964
g778
sI965
g1181
sI966
g349
sI967
g717
sI968
g106
sI969
g1024
sI970
g218
sI971
g236
sI972
g616
sI973
g284
sI974
g601
sI975
g307
sI976
g352
sI977
g899
sI978
g675
sI979
g919
sI980
g752
sI981
g767
sI982
g825
sI983
g902
sI984
g154
sI985
g1017
sI986
g993
sI987
g1152
sI988
g5
sI989
g57
sI990
g1158
sI991
g292
sI992
g976
sI993
g804
sI994
g461
sI995
g561
sI996
g516
sI997
g992
sI998
g716
sI999
g841
sI1000
g924
sI1001
g954
sI1002
g1021
sI1003
g1068
sI1004
g442
sI1005
g1164
sI1006
g1188
sI1007
g77
sI1008
g432
sI1009
g401
sI1010
g288
sI1011
g1066
sI1012
g392
sI1013
g443
sI1014
g79
sI1015
g471
sI1016
g557
sI1017
g597
sI1018
g606
sI1019
g709
sI1020
g6
sI1021
g757
sI1022
g815
sI1023
g991
sI1024
g137
sI1025
g217
sI1026
g148
sI1027
g430
sI1028
g673
sI1029
g659
sI1030
g911
sI1031
g405
sI1032
g679
sI1033
g507
sI1034
g518
sI1035
g688
sI1036
g835
sI1037
g562
sI1038
g696
sI1039
g1100
sI1040
g828
sI1041
g736
sI1042
g1129
sI1043
g17
sI1044
g80
sI1045
g574
sI1046
g104
sI1047
g117
sI1048
g167
sI1049
g1060
sI1050
g1083
sI1051
g263
sI1052
g769
sI1053
g372
sI1054
g440
sI1055
g1084
sI1056
g662
sI1057
g667
sI1058
g695
sI1059
g1014
sI1060
g816
sI1061
g879
sI1062
g900
sI1063
g904
sI1064
g770
sI1065
g64
sI1066
g663
sI1067
g973
sI1068
g120
sI1069
g1018
sI1070
g1140
sI1071
g219
sI1072
g200
sI1073
g267
sI1074
g327
sI1075
g974
sI1076
g1117
sI1077
g1173
sI1078
g1076
sI1079
g517
sI1080
g578
sI1081
g579
sI1082
g594
sI1083
g712
sI1084
g593
sI1085
g703
sI1086
g782
sI1087
g844
sI1088
g846
sI1089
g848
sI1090
g873
sI1091
g959
sI1092
g1052
sI1093
g1139
sI1094
g78
sI1095
g19
sI1096
g199
sI1097
g192
sI1098
g345
sI1099
g380
sI1100
g1127
sI1101
g523
sI1102
g536
sI1103
g559
sI1104
g943
sI1105
g623
sI1106
g624
sI1107
g702
sI1108
g781
sI1109
g1197
sI1110
g869
sI1111
g949
sI1112
g963
sI1113
g768
sI1114
g1186
sI1115
g107
sI1116
g756
sI1117
g295
sI1118
g826
sI1119
g884
sI1120
g862
sI1121
g642
sI1122
g1001
sI1123
g648
sI1124
g994
sI1125
g463
sI1126
g891
sI1127
g897
sI1128
g1102
sI1129
g1115
sI1130
g12
sI1131
g134
sI1132
g249
sI1133
g94
sI1134
g130
sI1135
g1192
sI1136
g207
sI1137
g309
sI1138
g765
sI1139
g730
sI1140
g424
sI1141
g870
sI1142
g433
sI1143
g539
sI1144
g621
sI1145
g1027
sI1146
g800
sI1147
g1101
sI1148
g1147
sI1149
g1190
sI1150
g1184
sI1151
g788
sI1152
g426
sI1153
g469
sI1154
g732
sI1155
g178
sI1156
g739
sI1157
g794
sI1158
g472
sI1159
g496
sI1160
g698
sI1161
g729
sI1162
g912
sI1163
g920
sI1164
g925
sI1165
g658
sI1166
g1191
sI1167
g1200
sI1168
g48
sI1169
g1205
sI1170
g308
sI1171
g1177
sI1172
g464
sI1173
g423
sI1174
g583
sI1175
g1096
sI1176
g645
sI1177
g1150
sI1178
g689
sI1179
g692
sI1180
g840
sI1181
g874
sI1182
g1062
sI1183
g1131
sI1184
g100
sI1185
g38
sI1186
g325
sI1187
g428
sI1188
g558
sI1189
g653
sI1190
g654
sI1191
g814
sI1192
g829
sI1193
g896
sI1194
g1155
sI1195
g958
sI1196
g1007
sI1197
g1019
sI1198
g1038
sI1199
g378
sI1200
g1094
sI1201
g932
sI2000
g474
sI2001
g850
sa.